Certificate:
    Data:
        Version: 3 (0x2)
        Serial Number: 3 (0x3)
    Signature Algorithm: sha256WithRSAEncryption
        Issuer: C=CN, O=X CA, OU=www.xiexianbin.cn, CN=X Root CA - R1
        Validity
            Not Before: May  5 16:12:32 2018 GMT
            Not After : Apr 30 16:12:32 2038 GMT
        Subject: C=CN, O=X CA, OU=www.xiexianbin.cn, CN=X Email CA 1C1
        Subject Public Key Info:
            Public Key Algorithm: rsaEncryption
                Public-Key: (4096 bit)
                Modulus:
                    00:be:c2:be:d7:8d:d1:cc:02:bf:5b:d7:c6:59:6b:
                    6f:22:4d:7e:b2:5d:8e:c6:a7:29:d6:66:84:83:fd:
                    25:ee:94:1c:d6:17:68:bb:67:63:13:c0:14:4b:ad:
                    d6:72:63:d2:8c:25:26:df:a7:3d:ac:3f:bf:f2:06:
                    6f:49:fd:eb:7a:a4:7a:04:9f:2e:72:26:4a:69:39:
                    3a:b4:30:bd:14:2e:95:ff:ee:dd:a1:b5:1a:39:8e:
                    f5:ea:0f:bf:d7:e5:46:fc:02:33:cb:02:69:e1:2e:
                    be:6e:1d:75:96:d3:4a:f7:d5:4d:b7:ba:45:f4:fc:
                    3f:1d:bd:c2:d6:9b:d1:19:a1:55:b9:f5:a8:b4:01:
                    73:7a:5a:1b:28:40:dc:8a:1b:e4:39:cf:73:47:9d:
                    42:5c:d0:9b:ba:01:17:6b:68:b0:6e:ee:d9:e6:b4:
                    bd:ef:d6:0c:65:6f:50:ce:3d:a4:bf:04:bb:b9:4d:
                    81:15:a0:9f:53:a7:e6:8c:68:07:0f:c4:87:a6:59:
                    4d:d9:ba:ba:f9:4d:e2:0f:b6:c6:8a:3f:8a:77:b9:
                    80:7d:81:6f:7b:68:e0:f7:1c:b8:b5:87:d2:54:79:
                    31:7d:79:23:bf:1b:71:fc:1c:0d:56:bb:3c:ee:06:
                    42:97:c1:fb:0f:d8:10:7f:62:eb:2a:14:20:b2:7e:
                    aa:b8:58:ea:d4:16:48:c8:49:75:44:d5:e5:f3:e9:
                    a5:cd:a9:c2:f7:f0:98:0b:5c:cf:c2:66:04:4f:0c:
                    2d:4c:f0:a2:07:17:fb:7d:51:ac:67:dd:5f:8f:cb:
                    ef:90:38:0b:d7:fa:a0:4b:9a:4c:a9:b0:c0:41:38:
                    7d:5c:54:21:57:88:0c:2e:a4:e8:cd:b8:45:3a:9d:
                    f8:5e:15:44:14:ba:f5:3a:b6:20:42:ad:41:a6:16:
                    6b:b1:7c:83:62:ec:f3:e5:35:75:37:5f:89:0c:c1:
                    7d:d1:18:ea:1a:3c:54:2c:75:7e:f2:0b:12:4e:7b:
                    8e:ce:94:9a:31:dd:08:42:4d:16:eb:da:40:f4:f3:
                    9b:a2:83:d4:4b:4c:de:8f:70:38:77:aa:25:36:9b:
                    e8:aa:3a:fb:66:1a:a2:71:fa:e8:e1:d2:e9:ff:6a:
                    47:80:04:19:5c:be:64:43:fd:c4:5e:2f:c5:34:51:
                    0f:fb:07:1b:b3:09:58:f0:4b:a8:7a:e0:5c:6e:7a:
                    05:ab:9e:23:00:eb:49:98:87:5a:24:f1:02:fa:db:
                    19:26:12:7e:5c:24:c7:25:f3:5b:82:6d:f4:ad:51:
                    5c:a5:5c:f0:ff:55:a5:c7:7f:6b:97:42:ff:3c:6d:
                    ea:cf:07:af:e2:d6:b2:e7:5e:2f:0a:ff:cb:61:56:
                    de:35:1d
                Exponent: 65537 (0x10001)
        X509v3 extensions:
            X509v3 Key Usage: critical
                Certificate Sign, CRL Sign
            X509v3 Basic Constraints: critical
                CA:TRUE, pathlen:0
            X509v3 Subject Key Identifier: 
                24:5E:F8:48:0A:27:83:39:24:74:80:E5:B6:9E:0C:46:3D:3A:0E:3D
            X509v3 Authority Key Identifier: 
                keyid:62:BA:42:B5:DF:EF:26:CF:78:6B:B3:23:73:98:B2:0D:CC:38:F9:71

            Authority Information Access: 
                CA Issuers - URI:https://ca.xiexianbin.cn/root-ca.cer

            X509v3 CRL Distribution Points: 

                Full Name:
                  URI:https://ca.xiexianbin.cn/root-ca.crl

    Signature Algorithm: sha256WithRSAEncryption
         52:f7:71:3c:6f:8a:9a:fe:f4:79:e7:5f:6e:d9:54:98:29:16:
         51:c0:c4:1f:a7:5c:e1:5d:95:8a:b7:4e:b9:00:38:33:2c:32:
         71:a0:8f:6f:2b:0b:d1:d1:d1:22:a7:93:72:6d:6d:19:05:b8:
         18:3a:1a:e3:ad:59:fe:dd:53:e4:50:cd:94:74:95:a8:ff:e7:
         f5:4d:01:9e:fa:40:13:59:fc:2c:30:17:38:52:cb:6c:c3:05:
         14:69:d9:25:ce:02:bf:ea:9f:ac:a2:c4:44:39:81:4d:8e:30:
         fe:1b:99:f2:e5:7b:0b:5a:cd:58:a8:d2:60:f3:05:f5:b8:a8:
         11:39:71:f4:c7:1b:ad:43:49:d4:29:58:1c:02:fe:30:ee:6f:
         fa:1c:37:ad:f0:85:96:19:ed:00:8d:f3:35:44:5d:3d:24:d2:
         9d:9a:66:79:77:ac:db:ac:d8:23:39:f6:ff:e6:1e:87:fc:5f:
         e9:de:8b:5e:1c:af:dd:e3:6d:ad:bf:88:d3:92:22:a8:31:9c:
         e6:7a:28:b5:c9:9a:1c:ea:92:b1:7d:ab:63:ef:f8:1a:47:f4:
         5a:5e:c0:44:c5:43:b2:b5:a0:01:e6:3d:a0:a4:8c:f2:2f:14:
         5f:65:6f:90:83:18:b0:95:dd:07:7b:82:19:92:7a:8c:22:4f:
         4a:7f:22:33:cb:54:8f:24:4f:e0:64:0b:ea:c0:e3:83:fa:b7:
         a4:4e:e5:7c:d3:e5:4d:b4:aa:43:ac:cb:4c:b6:61:9a:76:8c:
         a4:3d:d3:bd:e3:82:8d:5b:d3:6e:d2:67:03:8c:1e:8f:31:11:
         ac:c5:e5:f9:0a:58:01:fb:52:18:cf:6d:78:54:80:bd:02:32:
         23:ce:d2:39:7b:68:eb:b7:c1:1b:74:b9:52:c8:3c:52:70:39:
         10:5a:ca:20:e3:35:48:f1:90:b6:53:30:4f:07:09:b1:7c:2f:
         8c:f2:31:02:43:14:8e:55:32:1f:70:37:88:be:56:8a:56:8a:
         73:8a:a5:93:df:49:40:5e:e4:81:d3:c4:46:7e:1a:9c:be:f2:
         e3:fd:50:d4:2f:71:29:7e:ef:72:65:de:04:0a:b2:17:50:7b:
         aa:6e:6e:7b:65:6b:c0:84:b3:d1:50:17:5f:2e:37:6d:0b:16:
         4b:84:e7:cb:81:4b:d3:06:ab:9e:38:fb:ed:eb:bb:75:d3:79:
         46:15:62:fe:06:3a:e6:62:36:bc:e1:60:e0:fe:81:85:5f:57:
         16:d2:d5:70:b2:a9:6a:bd:af:e9:65:5e:d0:74:dc:4c:5a:ba:
         e0:7f:b6:5a:7d:5c:45:05:ee:63:4c:a1:4f:ef:73:ca:8c:98:
         2e:be:16:f4:61:2a:a1:23
-----BEGIN CERTIFICATE-----
MIIF/jCCA+agAwIBAgIBAzANBgkqhkiG9w0BAQsFADBRMQswCQYDVQQGEwJDTjEN
MAsGA1UECgwEWCBDQTEaMBgGA1UECwwRd3d3LnhpZXhpYW5iaW4uY24xFzAVBgNV
BAMMDlggUm9vdCBDQSAtIFIxMB4XDTE4MDUwNTE2MTIzMloXDTM4MDQzMDE2MTIz
MlowUTELMAkGA1UEBhMCQ04xDTALBgNVBAoMBFggQ0ExGjAYBgNVBAsMEXd3dy54
aWV4aWFuYmluLmNuMRcwFQYDVQQDDA5YIEVtYWlsIENBIDFDMTCCAiIwDQYJKoZI
hvcNAQEBBQADggIPADCCAgoCggIBAL7CvteN0cwCv1vXxllrbyJNfrJdjsanKdZm
hIP9Je6UHNYXaLtnYxPAFEut1nJj0owlJt+nPaw/v/IGb0n963qkegSfLnImSmk5
OrQwvRQulf/u3aG1GjmO9eoPv9flRvwCM8sCaeEuvm4ddZbTSvfVTbe6RfT8Px29
wtab0RmhVbn1qLQBc3paGyhA3Iob5DnPc0edQlzQm7oBF2tosG7u2ea0ve/WDGVv
UM49pL8Eu7lNgRWgn1On5oxoBw/Eh6ZZTdm6uvlN4g+2xoo/ine5gH2Bb3to4Pcc
uLWH0lR5MX15I78bcfwcDVa7PO4GQpfB+w/YEH9i6yoUILJ+qrhY6tQWSMhJdUTV
5fPppc2pwvfwmAtcz8JmBE8MLUzwogcX+31RrGfdX4/L75A4C9f6oEuaTKmwwEE4
fVxUIVeIDC6k6M24RTqd+F4VRBS69Tq2IEKtQaYWa7F8g2Ls8+U1dTdfiQzBfdEY
6ho8VCx1fvILEk57js6UmjHdCEJNFuvaQPTzm6KD1EtM3o9wOHeqJTab6Ko6+2Ya
onH66OHS6f9qR4AEGVy+ZEP9xF4vxTRRD/sHG7MJWPBLqHrgXG56BaueIwDrSZiH
WiTxAvrbGSYSflwkxyXzW4Jt9K1RXKVc8P9Vpcd/a5dC/zxt6s8Hr+LWsudeLwr/
y2FW3jUdAgMBAAGjgeAwgd0wDgYDVR0PAQH/BAQDAgEGMBIGA1UdEwEB/wQIMAYB
Af8CAQAwHQYDVR0OBBYEFCRe+EgKJ4M5JHSA5baeDEY9Og49MB8GA1UdIwQYMBaA
FGK6QrXf7ybPeGuzI3OYsg3MOPlxMEAGCCsGAQUFBwEBBDQwMjAwBggrBgEFBQcw
AoYkaHR0cHM6Ly9jYS54aWV4aWFuYmluLmNuL3Jvb3QtY2EuY2VyMDUGA1UdHwQu
MCwwKqAooCaGJGh0dHBzOi8vY2EueGlleGlhbmJpbi5jbi9yb290LWNhLmNybDAN
BgkqhkiG9w0BAQsFAAOCAgEAUvdxPG+Kmv70eedfbtlUmCkWUcDEH6dc4V2VirdO
uQA4MywycaCPbysL0dHRIqeTcm1tGQW4GDoa461Z/t1T5FDNlHSVqP/n9U0BnvpA
E1n8LDAXOFLLbMMFFGnZJc4Cv+qfrKLERDmBTY4w/huZ8uV7C1rNWKjSYPMF9bio
ETlx9McbrUNJ1ClYHAL+MO5v+hw3rfCFlhntAI3zNURdPSTSnZpmeXes26zYIzn2
/+Yeh/xf6d6LXhyv3eNtrb+I05IiqDGc5nootcmaHOqSsX2rY+/4Gkf0Wl7ARMVD
srWgAeY9oKSM8i8UX2VvkIMYsJXdB3uCGZJ6jCJPSn8iM8tUjyRP4GQL6sDjg/q3
pE7lfNPlTbSqQ6zLTLZhmnaMpD3TveOCjVvTbtJnA4wejzERrMXl+QpYAftSGM9t
eFSAvQIyI87SOXto67fBG3S5Usg8UnA5EFrKIOM1SPGQtlMwTwcJsXwvjPIxAkMU
jlUyH3A3iL5WilaKc4qlk99JQF7kgdPERn4anL7y4/1Q1C9xKX7vcmXeBAqyF1B7
qm5ue2VrwISz0VAXXy43bQsWS4Tny4FL0warnjj77eu7ddN5RhVi/gY65mI2vOFg
4P6BhV9XFtLVcLKpar2v6WVe0HTcTFq64H+2Wn1cRQXuY0yhT+9zyoyYLr4W9GEq
oSM=
-----END CERTIFICATE-----
