Certificate:
    Data:
        Version: 3 (0x2)
        Serial Number: 4 (0x4)
    Signature Algorithm: sha256WithRSAEncryption
        Issuer: C=CN, O=X CA, OU=www.xiexianbin.cn, CN=X Root CA - R1
        Validity
            Not Before: May  5 16:12:50 2018 GMT
            Not After : Apr 30 16:12:50 2038 GMT
        Subject: C=CN, O=X CA, OU=www.xiexianbin.cn, CN=X Software CA 1C1
        Subject Public Key Info:
            Public Key Algorithm: rsaEncryption
                Public-Key: (4096 bit)
                Modulus:
                    00:c2:e5:17:01:a7:14:8d:53:14:06:82:20:33:d7:
                    cc:47:30:f6:08:95:cd:69:97:34:3c:88:b6:7d:88:
                    8c:43:3a:bc:27:48:89:0a:4f:80:a4:48:ca:49:3e:
                    dc:8d:20:7c:32:c9:98:42:02:43:10:c3:6d:75:f5:
                    80:0c:ad:73:6b:8e:53:0a:b7:40:7f:98:12:59:5a:
                    73:fc:df:ef:ec:42:ff:43:b3:f7:d2:2c:b0:6c:1c:
                    ad:c3:fc:cb:d8:69:e9:6b:86:68:35:e3:b9:f3:af:
                    c0:85:76:24:ed:e0:10:b6:6c:1a:90:4a:3f:30:33:
                    04:54:69:01:66:fb:96:e4:f0:80:46:00:2a:c5:cc:
                    81:24:31:85:73:b9:8a:6f:a1:90:91:9a:0f:da:c2:
                    eb:28:59:16:ef:89:37:69:2c:a1:f6:42:1f:fe:61:
                    e2:4d:e3:24:ef:6b:5e:5c:a6:1a:b6:d6:4c:e2:e0:
                    2c:98:63:b8:43:0c:4d:65:e5:cd:1c:c2:0b:cf:31:
                    f7:73:5f:e2:f3:37:f2:1c:9e:eb:1c:81:27:4e:af:
                    6a:d8:db:ba:64:85:c3:49:70:0c:8c:79:23:b6:b7:
                    17:cd:de:03:39:fc:ea:79:bb:9e:8f:83:f6:c2:96:
                    a3:61:4b:2c:87:de:7a:3a:5f:be:97:04:a1:52:b1:
                    83:b1:17:32:ac:82:2c:61:3a:e5:fd:0c:70:2b:b2:
                    8d:21:40:ee:b6:b4:83:ca:98:46:e6:03:d1:98:39:
                    e6:2a:34:99:66:40:a2:55:e3:6f:bf:b1:36:47:fa:
                    e9:3e:fc:76:8d:92:84:2e:3c:c0:23:5c:7a:67:21:
                    b1:7e:03:14:58:49:95:a0:9e:42:61:b4:a9:ed:88:
                    7c:c9:85:27:e7:0b:32:8f:1a:6e:c8:11:4f:ec:84:
                    14:0a:29:13:76:f3:e9:bb:8d:8e:ef:fa:8d:68:bb:
                    0c:ee:84:b1:b4:b8:2e:9a:a1:7c:59:d2:a1:06:88:
                    96:c0:31:ba:2b:2d:1e:74:16:bf:b3:14:36:a9:ee:
                    9e:ee:94:d7:ba:aa:50:ec:95:43:c7:5e:13:b4:62:
                    15:d2:b3:13:61:70:04:06:3c:44:ce:f6:f1:ea:08:
                    4d:15:b4:ab:b2:50:5e:c5:a6:ae:eb:0b:d1:19:da:
                    88:9e:ed:f3:71:9a:ab:a2:b1:8f:45:67:0b:9b:08:
                    00:93:e8:29:2c:c7:a4:f3:a9:9c:de:42:ce:b3:19:
                    5c:73:fb:ad:a2:d0:de:ff:47:8b:ed:f6:da:12:b8:
                    b4:96:34:70:7d:99:a3:74:58:ec:42:b5:60:83:78:
                    ef:07:c7:78:40:20:7f:25:97:cc:41:01:9d:2b:ac:
                    6a:ea:b5
                Exponent: 65537 (0x10001)
        X509v3 extensions:
            X509v3 Key Usage: critical
                Certificate Sign, CRL Sign
            X509v3 Basic Constraints: critical
                CA:TRUE, pathlen:0
            X509v3 Subject Key Identifier: 
                F1:9C:95:D3:74:6A:03:15:82:0D:26:C5:D7:A0:33:C9:C5:4B:1D:26
            X509v3 Authority Key Identifier: 
                keyid:62:BA:42:B5:DF:EF:26:CF:78:6B:B3:23:73:98:B2:0D:CC:38:F9:71

            Authority Information Access: 
                CA Issuers - URI:https://ca.xiexianbin.cn/root-ca.cer

            X509v3 CRL Distribution Points: 

                Full Name:
                  URI:https://ca.xiexianbin.cn/root-ca.crl

    Signature Algorithm: sha256WithRSAEncryption
         01:10:79:5e:64:88:23:63:a6:d9:94:ea:92:a9:63:01:78:df:
         e1:81:72:c1:32:66:a8:09:fd:41:9a:5c:e8:61:47:7b:a0:20:
         ca:a5:f5:ea:4b:af:1c:12:87:5d:da:45:6e:3a:e5:88:2c:88:
         fd:11:76:c9:75:e2:7b:f2:73:45:b2:2e:c9:ab:45:d8:90:fb:
         c3:e9:47:3b:af:2d:dd:67:07:bc:90:40:66:95:7a:a4:3f:5d:
         10:62:68:2e:26:64:bb:d2:7d:cf:ad:93:2d:48:ab:c4:7d:d1:
         58:7e:17:ed:c6:72:39:46:a6:8b:54:d7:1d:af:a2:b7:6b:6c:
         e4:a3:54:71:62:52:2e:d2:1c:50:fd:cf:6a:f0:d4:92:b0:a7:
         e7:aa:ee:ce:8a:48:cb:79:0d:b9:39:3d:ea:d9:c2:17:8f:72:
         c8:79:69:08:03:9f:a2:df:92:3f:ae:40:32:15:5d:73:07:5e:
         cf:a8:7f:74:98:24:47:16:7e:3b:72:7c:a3:f9:2a:ac:4d:41:
         53:0d:51:72:73:4c:0f:d2:29:92:b5:46:0b:46:e2:3e:65:16:
         06:13:b1:b1:01:74:6b:c8:7b:f1:99:5a:eb:d7:11:56:99:eb:
         2a:53:f1:a1:55:37:71:84:eb:3f:1d:01:c6:90:fe:da:3e:35:
         52:4a:fc:58:d5:e1:76:7f:32:3d:9f:e3:d6:1f:8c:7e:ae:4f:
         fd:be:13:e5:f4:5a:3a:b3:ab:7c:49:6f:fc:8f:40:56:e1:50:
         ca:22:66:df:73:dd:3f:67:92:77:3a:d9:f3:6a:aa:8c:36:b9:
         4b:c9:22:8d:6b:85:0d:df:6e:29:29:b5:9e:8b:3f:bc:2e:f4:
         81:c5:b0:2e:d5:6f:33:74:d3:f4:4e:91:64:64:cc:d1:41:73:
         22:91:86:f6:00:b1:2b:a2:e9:c3:30:1a:2e:ec:43:5a:6b:5d:
         1a:c4:16:72:f7:d9:ee:6b:dc:9e:ee:31:43:22:31:40:75:b0:
         b5:94:ca:62:84:01:a1:cc:00:f7:34:76:44:5d:95:94:41:9d:
         fa:48:a2:63:ea:bf:ae:11:d6:db:32:5f:91:51:b9:d4:ac:be:
         10:da:50:c2:5f:8b:ff:a5:46:ca:0f:4c:2c:ce:99:9d:52:71:
         9c:55:e3:a4:1b:f2:44:23:fc:f1:ce:0d:5f:04:ab:36:b1:87:
         cb:94:e1:c1:b0:5d:57:cf:8a:dc:89:a9:f7:51:e0:87:ca:52:
         2d:5f:5f:6a:72:9c:ea:bc:ec:5b:06:3c:4a:41:5a:18:91:57:
         d4:44:6e:df:bb:5d:f4:af:26:96:89:1d:c8:d0:c9:4c:d4:93:
         c8:52:2c:bc:74:e8:40:de
-----BEGIN CERTIFICATE-----
MIIGATCCA+mgAwIBAgIBBDANBgkqhkiG9w0BAQsFADBRMQswCQYDVQQGEwJDTjEN
MAsGA1UECgwEWCBDQTEaMBgGA1UECwwRd3d3LnhpZXhpYW5iaW4uY24xFzAVBgNV
BAMMDlggUm9vdCBDQSAtIFIxMB4XDTE4MDUwNTE2MTI1MFoXDTM4MDQzMDE2MTI1
MFowVDELMAkGA1UEBhMCQ04xDTALBgNVBAoMBFggQ0ExGjAYBgNVBAsMEXd3dy54
aWV4aWFuYmluLmNuMRowGAYDVQQDDBFYIFNvZnR3YXJlIENBIDFDMTCCAiIwDQYJ
KoZIhvcNAQEBBQADggIPADCCAgoCggIBAMLlFwGnFI1TFAaCIDPXzEcw9giVzWmX
NDyItn2IjEM6vCdIiQpPgKRIykk+3I0gfDLJmEICQxDDbXX1gAytc2uOUwq3QH+Y
Ellac/zf7+xC/0Oz99IssGwcrcP8y9hp6WuGaDXjufOvwIV2JO3gELZsGpBKPzAz
BFRpAWb7luTwgEYAKsXMgSQxhXO5im+hkJGaD9rC6yhZFu+JN2ksofZCH/5h4k3j
JO9rXlymGrbWTOLgLJhjuEMMTWXlzRzCC88x93Nf4vM38hye6xyBJ06vatjbumSF
w0lwDIx5I7a3F83eAzn86nm7no+D9sKWo2FLLIfeejpfvpcEoVKxg7EXMqyCLGE6
5f0McCuyjSFA7ra0g8qYRuYD0Zg55io0mWZAolXjb7+xNkf66T78do2ShC48wCNc
emchsX4DFFhJlaCeQmG0qe2IfMmFJ+cLMo8absgRT+yEFAopE3bz6buNju/6jWi7
DO6EsbS4LpqhfFnSoQaIlsAxuistHnQWv7MUNqnunu6U17qqUOyVQ8deE7RiFdKz
E2FwBAY8RM728eoITRW0q7JQXsWmrusL0RnaiJ7t83Gaq6Kxj0VnC5sIAJPoKSzH
pPOpnN5CzrMZXHP7raLQ3v9Hi+322hK4tJY0cH2Zo3RY7EK1YIN47wfHeEAgfyWX
zEEBnSusauq1AgMBAAGjgeAwgd0wDgYDVR0PAQH/BAQDAgEGMBIGA1UdEwEB/wQI
MAYBAf8CAQAwHQYDVR0OBBYEFPGcldN0agMVgg0mxdegM8nFSx0mMB8GA1UdIwQY
MBaAFGK6QrXf7ybPeGuzI3OYsg3MOPlxMEAGCCsGAQUFBwEBBDQwMjAwBggrBgEF
BQcwAoYkaHR0cHM6Ly9jYS54aWV4aWFuYmluLmNuL3Jvb3QtY2EuY2VyMDUGA1Ud
HwQuMCwwKqAooCaGJGh0dHBzOi8vY2EueGlleGlhbmJpbi5jbi9yb290LWNhLmNy
bDANBgkqhkiG9w0BAQsFAAOCAgEAARB5XmSII2Om2ZTqkqljAXjf4YFywTJmqAn9
QZpc6GFHe6AgyqX16kuvHBKHXdpFbjrliCyI/RF2yXXie/JzRbIuyatF2JD7w+lH
O68t3WcHvJBAZpV6pD9dEGJoLiZku9J9z62TLUirxH3RWH4X7cZyOUami1TXHa+i
t2ts5KNUcWJSLtIcUP3PavDUkrCn56ruzopIy3kNuTk96tnCF49yyHlpCAOfot+S
P65AMhVdcwdez6h/dJgkRxZ+O3J8o/kqrE1BUw1RcnNMD9IpkrVGC0biPmUWBhOx
sQF0a8h78Zla69cRVpnrKlPxoVU3cYTrPx0BxpD+2j41Ukr8WNXhdn8yPZ/j1h+M
fq5P/b4T5fRaOrOrfElv/I9AVuFQyiJm33PdP2eSdzrZ82qqjDa5S8kijWuFDd9u
KSm1nos/vC70gcWwLtVvM3TT9E6RZGTM0UFzIpGG9gCxK6LpwzAaLuxDWmtdGsQW
cvfZ7mvcnu4xQyIxQHWwtZTKYoQBocwA9zR2RF2VlEGd+kiiY+q/rhHW2zJfkVG5
1Ky+ENpQwl+L/6VGyg9MLM6ZnVJxnFXjpBvyRCP88c4NXwSrNrGHy5ThwbBdV8+K
3Imp91Hgh8pSLV9fanKc6rzsWwY8SkFaGJFX1ERu37td9K8mlokdyNDJTNSTyFIs
vHToQN4=
-----END CERTIFICATE-----
