Certificate:
    Data:
        Version: 3 (0x2)
        Serial Number: 2 (0x2)
    Signature Algorithm: sha256WithRSAEncryption
        Issuer: C=CN, O=X CA, OU=www.xiexianbin.cn, CN=X Root CA - R1
        Validity
            Not Before: May  5 16:12:13 2018 GMT
            Not After : Apr 30 16:12:13 2038 GMT
        Subject: C=CN, O=X CA, OU=www.xiexianbin.cn, CN=X TLS CA 1C1
        Subject Public Key Info:
            Public Key Algorithm: rsaEncryption
                Public-Key: (4096 bit)
                Modulus:
                    00:eb:02:ca:ba:fb:e5:db:1f:05:b8:35:ef:5d:4a:
                    de:28:52:8a:6b:1b:d3:c3:d0:c9:90:fe:d9:04:34:
                    2f:4f:28:61:8b:e3:7c:06:81:c5:47:6a:7b:da:e4:
                    0d:17:8e:fb:60:6b:d6:6e:bc:1e:de:f9:ba:8e:b2:
                    36:89:08:30:70:f3:a0:a6:e9:72:10:9c:b2:ac:0e:
                    aa:5f:6f:c2:e4:9d:68:0d:d2:9f:96:87:66:3d:88:
                    2e:9c:39:12:18:c5:73:d3:ca:2c:62:3f:27:e5:da:
                    ac:a4:6d:6a:47:c1:7c:7b:5d:7e:4b:c4:77:72:d3:
                    cc:c0:81:36:25:09:ef:af:17:95:85:bd:1c:14:19:
                    48:fc:c9:20:ae:76:e0:09:84:a0:46:45:ca:32:2c:
                    dd:fb:8b:4f:ca:17:bb:fd:81:b1:b3:cd:24:3c:5f:
                    be:fa:82:f6:22:f7:f6:02:b3:b8:aa:5a:91:0d:25:
                    38:69:1b:e7:16:4a:fc:af:e2:c3:b2:5a:f9:46:b6:
                    6d:c4:20:a7:80:da:75:a9:20:62:59:fa:00:3b:65:
                    ce:44:ed:fd:c6:b8:2a:26:cb:89:28:a1:9f:7d:e5:
                    46:54:44:2b:d9:4c:b3:37:d2:2b:2e:64:ef:16:0d:
                    0c:15:9c:97:ea:7a:59:d2:f1:6d:03:ee:af:08:f6:
                    5d:4a:36:89:61:ea:e7:00:02:4f:96:3c:1b:cc:38:
                    ab:7a:6e:32:37:24:47:d4:c2:0e:ca:b2:bd:47:ce:
                    d2:05:9a:9b:30:8f:da:2c:68:bb:c7:8a:33:e7:d0:
                    0d:3c:b6:ae:af:90:41:a2:95:34:0e:4d:7f:a1:82:
                    47:6c:eb:be:3c:84:06:9d:36:4a:d1:ed:52:b6:84:
                    f4:fb:97:74:54:d6:a6:5f:8e:0a:fe:eb:47:73:b1:
                    bd:20:6c:53:ca:b9:b9:1d:34:c8:ad:98:f6:02:b7:
                    e3:92:3c:0d:14:a6:cd:96:d9:2f:66:20:a4:8a:08:
                    b3:4c:85:66:cf:d1:11:a1:d7:7a:ff:18:b3:b5:37:
                    95:b0:44:d6:fd:8e:b8:7d:f8:08:50:23:89:9a:bb:
                    bf:89:3a:46:c6:d3:a6:b1:92:9e:df:28:d7:3c:37:
                    62:49:88:2b:e4:ac:ca:39:87:fd:03:82:44:71:a0:
                    1e:b7:8d:43:1d:c4:3b:09:3b:ba:90:49:d0:5d:c3:
                    49:0f:a4:f8:c8:58:43:de:bc:4c:44:18:ca:1d:8e:
                    69:59:a8:33:91:5b:7a:a4:dd:3a:bf:46:c1:4d:48:
                    08:81:b6:dd:33:52:5c:f2:ad:b8:1d:a0:90:95:22:
                    7b:36:9b:34:5c:4c:4c:08:68:57:47:45:86:ea:32:
                    f1:c4:cd
                Exponent: 65537 (0x10001)
        X509v3 extensions:
            X509v3 Key Usage: critical
                Certificate Sign, CRL Sign
            X509v3 Basic Constraints: critical
                CA:TRUE, pathlen:0
            X509v3 Subject Key Identifier: 
                88:1E:9E:D5:63:E9:F4:D0:E1:03:F5:75:3A:91:DF:CF:90:74:62:9D
            X509v3 Authority Key Identifier: 
                keyid:62:BA:42:B5:DF:EF:26:CF:78:6B:B3:23:73:98:B2:0D:CC:38:F9:71

            Authority Information Access: 
                CA Issuers - URI:https://ca.xiexianbin.cn/root-ca.cer

            X509v3 CRL Distribution Points: 

                Full Name:
                  URI:https://ca.xiexianbin.cn/root-ca.crl

    Signature Algorithm: sha256WithRSAEncryption
         89:35:79:94:7a:4d:9c:64:f8:62:00:9c:72:84:5e:d6:94:74:
         70:83:af:54:03:c8:10:22:86:72:0c:24:af:07:7e:27:74:a4:
         63:c9:22:f7:3a:29:a1:a7:4b:b1:36:80:a0:e0:6d:c0:2d:b3:
         12:93:be:06:d8:8f:4b:21:b2:ce:c9:b4:20:1b:9d:1e:e1:ce:
         b1:1c:f9:9a:e7:1f:2f:07:cd:b4:f4:82:8d:8b:88:bf:e9:ca:
         ed:2b:b5:71:6a:07:99:de:40:58:82:d6:cf:b6:80:1c:a8:ca:
         d0:6d:e7:dd:9b:11:21:8a:aa:4b:b0:02:8b:0c:72:f3:5a:c2:
         6b:54:52:db:2a:59:af:95:5b:cf:b9:f7:0b:a9:f0:c7:ac:d9:
         88:8d:cc:6a:cf:94:05:d2:4a:c0:ce:06:8a:13:7a:d3:84:50:
         d5:72:08:a1:f8:b4:1a:68:ab:b6:42:2f:82:1e:54:4c:e2:a4:
         48:81:48:08:6d:e7:6a:2e:81:d6:bf:12:75:78:0c:17:f7:39:
         34:b0:a7:15:00:48:4b:3e:a9:21:c0:a9:44:c0:7e:ba:b9:b9:
         9b:df:ef:a7:90:4c:c9:e5:a4:74:83:72:35:9d:28:28:2b:2a:
         68:f2:c3:ea:f5:05:6f:7c:d3:f8:c1:63:9d:fa:ca:18:44:54:
         d1:1d:a5:49:11:26:b1:e8:fc:9c:eb:a9:1d:ab:51:b4:35:dd:
         10:d7:47:62:72:a8:c4:6d:2f:11:d3:b0:3b:24:14:41:f8:55:
         4f:a5:fa:cc:6b:fd:57:c7:a9:ec:fb:2e:a1:5f:93:49:a0:ae:
         b9:a2:50:a5:93:18:9e:13:43:c9:1e:26:1a:dc:c9:e3:ab:ce:
         d5:21:33:92:53:f3:9d:f8:1e:89:a2:46:5a:2f:4d:1a:9c:01:
         cd:b9:df:50:30:df:b4:1a:e3:28:fb:bb:c8:73:b3:36:9c:28:
         aa:db:95:ce:d3:d1:28:dc:aa:46:e3:bb:99:ba:ab:5f:21:3d:
         24:61:ea:da:3f:36:42:9c:57:c0:14:d2:d3:64:79:52:75:ea:
         12:37:65:02:8d:09:12:ab:a5:40:ee:f7:3a:2d:53:bd:94:50:
         c4:ff:71:60:f2:bb:05:6b:03:f8:01:24:e5:9e:42:d2:2d:ca:
         85:c4:26:69:1b:b6:52:00:06:0e:b0:2a:c6:ac:bb:a9:02:ab:
         91:7a:23:f8:bb:87:20:2d:3c:a6:8b:a8:7c:11:46:51:b6:57:
         86:f3:8c:af:0d:a4:bd:da:57:d4:55:bd:65:04:02:97:1f:b4:
         7d:4d:05:1d:47:c2:9a:5b:e1:fe:68:f1:0c:d8:83:e8:23:85:
         ab:ee:d4:62:c0:8f:77:ca
-----BEGIN CERTIFICATE-----
MIIF/DCCA+SgAwIBAgIBAjANBgkqhkiG9w0BAQsFADBRMQswCQYDVQQGEwJDTjEN
MAsGA1UECgwEWCBDQTEaMBgGA1UECwwRd3d3LnhpZXhpYW5iaW4uY24xFzAVBgNV
BAMMDlggUm9vdCBDQSAtIFIxMB4XDTE4MDUwNTE2MTIxM1oXDTM4MDQzMDE2MTIx
M1owTzELMAkGA1UEBhMCQ04xDTALBgNVBAoMBFggQ0ExGjAYBgNVBAsMEXd3dy54
aWV4aWFuYmluLmNuMRUwEwYDVQQDDAxYIFRMUyBDQSAxQzEwggIiMA0GCSqGSIb3
DQEBAQUAA4ICDwAwggIKAoICAQDrAsq6++XbHwW4Ne9dSt4oUoprG9PD0MmQ/tkE
NC9PKGGL43wGgcVHanva5A0Xjvtga9ZuvB7e+bqOsjaJCDBw86Cm6XIQnLKsDqpf
b8LknWgN0p+Wh2Y9iC6cORIYxXPTyixiPyfl2qykbWpHwXx7XX5LxHdy08zAgTYl
Ce+vF5WFvRwUGUj8ySCuduAJhKBGRcoyLN37i0/KF7v9gbGzzSQ8X776gvYi9/YC
s7iqWpENJThpG+cWSvyv4sOyWvlGtm3EIKeA2nWpIGJZ+gA7Zc5E7f3GuComy4ko
oZ995UZURCvZTLM30isuZO8WDQwVnJfqelnS8W0D7q8I9l1KNolh6ucAAk+WPBvM
OKt6bjI3JEfUwg7Ksr1HztIFmpswj9osaLvHijPn0A08tq6vkEGilTQOTX+hgkds
6748hAadNkrR7VK2hPT7l3RU1qZfjgr+60dzsb0gbFPKubkdNMitmPYCt+OSPA0U
ps2W2S9mIKSKCLNMhWbP0RGh13r/GLO1N5WwRNb9jrh9+AhQI4mau7+JOkbG06ax
kp7fKNc8N2JJiCvkrMo5h/0DgkRxoB63jUMdxDsJO7qQSdBdw0kPpPjIWEPevExE
GModjmlZqDORW3qk3Tq/RsFNSAiBtt0zUlzyrbgdoJCVIns2mzRcTEwIaFdHRYbq
MvHEzQIDAQABo4HgMIHdMA4GA1UdDwEB/wQEAwIBBjASBgNVHRMBAf8ECDAGAQH/
AgEAMB0GA1UdDgQWBBSIHp7VY+n00OED9XU6kd/PkHRinTAfBgNVHSMEGDAWgBRi
ukK13+8mz3hrsyNzmLINzDj5cTBABggrBgEFBQcBAQQ0MDIwMAYIKwYBBQUHMAKG
JGh0dHBzOi8vY2EueGlleGlhbmJpbi5jbi9yb290LWNhLmNlcjA1BgNVHR8ELjAs
MCqgKKAmhiRodHRwczovL2NhLnhpZXhpYW5iaW4uY24vcm9vdC1jYS5jcmwwDQYJ
KoZIhvcNAQELBQADggIBAIk1eZR6TZxk+GIAnHKEXtaUdHCDr1QDyBAihnIMJK8H
fid0pGPJIvc6KaGnS7E2gKDgbcAtsxKTvgbYj0shss7JtCAbnR7hzrEc+ZrnHy8H
zbT0go2LiL/pyu0rtXFqB5neQFiC1s+2gByoytBt592bESGKqkuwAosMcvNawmtU
UtsqWa+VW8+59wup8Mes2YiNzGrPlAXSSsDOBooTetOEUNVyCKH4tBpoq7ZCL4Ie
VEzipEiBSAht52ougda/EnV4DBf3OTSwpxUASEs+qSHAqUTAfrq5uZvf76eQTMnl
pHSDcjWdKCgrKmjyw+r1BW980/jBY536yhhEVNEdpUkRJrHo/JzrqR2rUbQ13RDX
R2JyqMRtLxHTsDskFEH4VU+l+sxr/VfHqez7LqFfk0mgrrmiUKWTGJ4TQ8keJhrc
yeOrztUhM5JT8534HomiRlovTRqcAc2531Aw37Qa4yj7u8hzszacKKrblc7T0Sjc
qkbju5m6q18hPSRh6to/NkKcV8AU0tNkeVJ16hI3ZQKNCRKrpUDu9zotU72UUMT/
cWDyuwVrA/gBJOWeQtItyoXEJmkbtlIABg6wKsasu6kCq5F6I/i7hyAtPKaLqHwR
RlG2V4bzjK8NpL3aV9RVvWUEApcftH1NBR1Hwppb4f5o8QzYg+gjhavu1GLAj3fK
-----END CERTIFICATE-----
