Certificate:
    Data:
        Version: 3 (0x2)
        Serial Number: 2 (0x2)
    Signature Algorithm: sha256WithRSAEncryption
        Issuer: C=CN, O=X CA, OU=www.xiexianbin.cn, CN=X Root CA - R1
        Validity
            Not Before: May  5 16:12:13 2018 GMT
            Not After : Apr 30 16:12:13 2038 GMT
        Subject: C=CN, O=X CA, OU=www.xiexianbin.cn, CN=X TLS CA 1C1
        Subject Public Key Info:
            Public Key Algorithm: rsaEncryption
                Public-Key: (4096 bit)
                Modulus:
                    00:eb:02:ca:ba:fb:e5:db:1f:05:b8:35:ef:5d:4a:
                    de:28:52:8a:6b:1b:d3:c3:d0:c9:90:fe:d9:04:34:
                    2f:4f:28:61:8b:e3:7c:06:81:c5:47:6a:7b:da:e4:
                    0d:17:8e:fb:60:6b:d6:6e:bc:1e:de:f9:ba:8e:b2:
                    36:89:08:30:70:f3:a0:a6:e9:72:10:9c:b2:ac:0e:
                    aa:5f:6f:c2:e4:9d:68:0d:d2:9f:96:87:66:3d:88:
                    2e:9c:39:12:18:c5:73:d3:ca:2c:62:3f:27:e5:da:
                    ac:a4:6d:6a:47:c1:7c:7b:5d:7e:4b:c4:77:72:d3:
                    cc:c0:81:36:25:09:ef:af:17:95:85:bd:1c:14:19:
                    48:fc:c9:20:ae:76:e0:09:84:a0:46:45:ca:32:2c:
                    dd:fb:8b:4f:ca:17:bb:fd:81:b1:b3:cd:24:3c:5f:
                    be:fa:82:f6:22:f7:f6:02:b3:b8:aa:5a:91:0d:25:
                    38:69:1b:e7:16:4a:fc:af:e2:c3:b2:5a:f9:46:b6:
                    6d:c4:20:a7:80:da:75:a9:20:62:59:fa:00:3b:65:
                    ce:44:ed:fd:c6:b8:2a:26:cb:89:28:a1:9f:7d:e5:
                    46:54:44:2b:d9:4c:b3:37:d2:2b:2e:64:ef:16:0d:
                    0c:15:9c:97:ea:7a:59:d2:f1:6d:03:ee:af:08:f6:
                    5d:4a:36:89:61:ea:e7:00:02:4f:96:3c:1b:cc:38:
                    ab:7a:6e:32:37:24:47:d4:c2:0e:ca:b2:bd:47:ce:
                    d2:05:9a:9b:30:8f:da:2c:68:bb:c7:8a:33:e7:d0:
                    0d:3c:b6:ae:af:90:41:a2:95:34:0e:4d:7f:a1:82:
                    47:6c:eb:be:3c:84:06:9d:36:4a:d1:ed:52:b6:84:
                    f4:fb:97:74:54:d6:a6:5f:8e:0a:fe:eb:47:73:b1:
                    bd:20:6c:53:ca:b9:b9:1d:34:c8:ad:98:f6:02:b7:
                    e3:92:3c:0d:14:a6:cd:96:d9:2f:66:20:a4:8a:08:
                    b3:4c:85:66:cf:d1:11:a1:d7:7a:ff:18:b3:b5:37:
                    95:b0:44:d6:fd:8e:b8:7d:f8:08:50:23:89:9a:bb:
                    bf:89:3a:46:c6:d3:a6:b1:92:9e:df:28:d7:3c:37:
                    62:49:88:2b:e4:ac:ca:39:87:fd:03:82:44:71:a0:
                    1e:b7:8d:43:1d:c4:3b:09:3b:ba:90:49:d0:5d:c3:
                    49:0f:a4:f8:c8:58:43:de:bc:4c:44:18:ca:1d:8e:
                    69:59:a8:33:91:5b:7a:a4:dd:3a:bf:46:c1:4d:48:
                    08:81:b6:dd:33:52:5c:f2:ad:b8:1d:a0:90:95:22:
                    7b:36:9b:34:5c:4c:4c:08:68:57:47:45:86:ea:32:
                    f1:c4:cd
                Exponent: 65537 (0x10001)
        X509v3 extensions:
            X509v3 Key Usage: critical
                Certificate Sign, CRL Sign
            X509v3 Basic Constraints: critical
                CA:TRUE, pathlen:0
            X509v3 Subject Key Identifier: 
                88:1E:9E:D5:63:E9:F4:D0:E1:03:F5:75:3A:91:DF:CF:90:74:62:9D
            X509v3 Authority Key Identifier: 
                keyid:62:BA:42:B5:DF:EF:26:CF:78:6B:B3:23:73:98:B2:0D:CC:38:F9:71

            Authority Information Access: 
                CA Issuers - URI:https://ca.xiexianbin.cn/root-ca.cer

            X509v3 CRL Distribution Points: 

                Full Name:
                  URI:https://ca.xiexianbin.cn/root-ca.crl

    Signature Algorithm: sha256WithRSAEncryption
         89:35:79:94:7a:4d:9c:64:f8:62:00:9c:72:84:5e:d6:94:74:
         70:83:af:54:03:c8:10:22:86:72:0c:24:af:07:7e:27:74:a4:
         63:c9:22:f7:3a:29:a1:a7:4b:b1:36:80:a0:e0:6d:c0:2d:b3:
         12:93:be:06:d8:8f:4b:21:b2:ce:c9:b4:20:1b:9d:1e:e1:ce:
         b1:1c:f9:9a:e7:1f:2f:07:cd:b4:f4:82:8d:8b:88:bf:e9:ca:
         ed:2b:b5:71:6a:07:99:de:40:58:82:d6:cf:b6:80:1c:a8:ca:
         d0:6d:e7:dd:9b:11:21:8a:aa:4b:b0:02:8b:0c:72:f3:5a:c2:
         6b:54:52:db:2a:59:af:95:5b:cf:b9:f7:0b:a9:f0:c7:ac:d9:
         88:8d:cc:6a:cf:94:05:d2:4a:c0:ce:06:8a:13:7a:d3:84:50:
         d5:72:08:a1:f8:b4:1a:68:ab:b6:42:2f:82:1e:54:4c:e2:a4:
         48:81:48:08:6d:e7:6a:2e:81:d6:bf:12:75:78:0c:17:f7:39:
         34:b0:a7:15:00:48:4b:3e:a9:21:c0:a9:44:c0:7e:ba:b9:b9:
         9b:df:ef:a7:90:4c:c9:e5:a4:74:83:72:35:9d:28:28:2b:2a:
         68:f2:c3:ea:f5:05:6f:7c:d3:f8:c1:63:9d:fa:ca:18:44:54:
         d1:1d:a5:49:11:26:b1:e8:fc:9c:eb:a9:1d:ab:51:b4:35:dd:
         10:d7:47:62:72:a8:c4:6d:2f:11:d3:b0:3b:24:14:41:f8:55:
         4f:a5:fa:cc:6b:fd:57:c7:a9:ec:fb:2e:a1:5f:93:49:a0:ae:
         b9:a2:50:a5:93:18:9e:13:43:c9:1e:26:1a:dc:c9:e3:ab:ce:
         d5:21:33:92:53:f3:9d:f8:1e:89:a2:46:5a:2f:4d:1a:9c:01:
         cd:b9:df:50:30:df:b4:1a:e3:28:fb:bb:c8:73:b3:36:9c:28:
         aa:db:95:ce:d3:d1:28:dc:aa:46:e3:bb:99:ba:ab:5f:21:3d:
         24:61:ea:da:3f:36:42:9c:57:c0:14:d2:d3:64:79:52:75:ea:
         12:37:65:02:8d:09:12:ab:a5:40:ee:f7:3a:2d:53:bd:94:50:
         c4:ff:71:60:f2:bb:05:6b:03:f8:01:24:e5:9e:42:d2:2d:ca:
         85:c4:26:69:1b:b6:52:00:06:0e:b0:2a:c6:ac:bb:a9:02:ab:
         91:7a:23:f8:bb:87:20:2d:3c:a6:8b:a8:7c:11:46:51:b6:57:
         86:f3:8c:af:0d:a4:bd:da:57:d4:55:bd:65:04:02:97:1f:b4:
         7d:4d:05:1d:47:c2:9a:5b:e1:fe:68:f1:0c:d8:83:e8:23:85:
         ab:ee:d4:62:c0:8f:77:ca
-----BEGIN CERTIFICATE-----
MIIF/DCCA+SgAwIBAgIBAjANBgkqhkiG9w0BAQsFADBRMQswCQYDVQQGEwJDTjEN
MAsGA1UECgwEWCBDQTEaMBgGA1UECwwRd3d3LnhpZXhpYW5iaW4uY24xFzAVBgNV
BAMMDlggUm9vdCBDQSAtIFIxMB4XDTE4MDUwNTE2MTIxM1oXDTM4MDQzMDE2MTIx
M1owTzELMAkGA1UEBhMCQ04xDTALBgNVBAoMBFggQ0ExGjAYBgNVBAsMEXd3dy54
aWV4aWFuYmluLmNuMRUwEwYDVQQDDAxYIFRMUyBDQSAxQzEwggIiMA0GCSqGSIb3
DQEBAQUAA4ICDwAwggIKAoICAQDrAsq6++XbHwW4Ne9dSt4oUoprG9PD0MmQ/tkE
NC9PKGGL43wGgcVHanva5A0Xjvtga9ZuvB7e+bqOsjaJCDBw86Cm6XIQnLKsDqpf
b8LknWgN0p+Wh2Y9iC6cORIYxXPTyixiPyfl2qykbWpHwXx7XX5LxHdy08zAgTYl
Ce+vF5WFvRwUGUj8ySCuduAJhKBGRcoyLN37i0/KF7v9gbGzzSQ8X776gvYi9/YC
s7iqWpENJThpG+cWSvyv4sOyWvlGtm3EIKeA2nWpIGJZ+gA7Zc5E7f3GuComy4ko
oZ995UZURCvZTLM30isuZO8WDQwVnJfqelnS8W0D7q8I9l1KNolh6ucAAk+WPBvM
OKt6bjI3JEfUwg7Ksr1HztIFmpswj9osaLvHijPn0A08tq6vkEGilTQOTX+hgkds
6748hAadNkrR7VK2hPT7l3RU1qZfjgr+60dzsb0gbFPKubkdNMitmPYCt+OSPA0U
ps2W2S9mIKSKCLNMhWbP0RGh13r/GLO1N5WwRNb9jrh9+AhQI4mau7+JOkbG06ax
kp7fKNc8N2JJiCvkrMo5h/0DgkRxoB63jUMdxDsJO7qQSdBdw0kPpPjIWEPevExE
GModjmlZqDORW3qk3Tq/RsFNSAiBtt0zUlzyrbgdoJCVIns2mzRcTEwIaFdHRYbq
MvHEzQIDAQABo4HgMIHdMA4GA1UdDwEB/wQEAwIBBjASBgNVHRMBAf8ECDAGAQH/
AgEAMB0GA1UdDgQWBBSIHp7VY+n00OED9XU6kd/PkHRinTAfBgNVHSMEGDAWgBRi
ukK13+8mz3hrsyNzmLINzDj5cTBABggrBgEFBQcBAQQ0MDIwMAYIKwYBBQUHMAKG
JGh0dHBzOi8vY2EueGlleGlhbmJpbi5jbi9yb290LWNhLmNlcjA1BgNVHR8ELjAs
MCqgKKAmhiRodHRwczovL2NhLnhpZXhpYW5iaW4uY24vcm9vdC1jYS5jcmwwDQYJ
KoZIhvcNAQELBQADggIBAIk1eZR6TZxk+GIAnHKEXtaUdHCDr1QDyBAihnIMJK8H
fid0pGPJIvc6KaGnS7E2gKDgbcAtsxKTvgbYj0shss7JtCAbnR7hzrEc+ZrnHy8H
zbT0go2LiL/pyu0rtXFqB5neQFiC1s+2gByoytBt592bESGKqkuwAosMcvNawmtU
UtsqWa+VW8+59wup8Mes2YiNzGrPlAXSSsDOBooTetOEUNVyCKH4tBpoq7ZCL4Ie
VEzipEiBSAht52ougda/EnV4DBf3OTSwpxUASEs+qSHAqUTAfrq5uZvf76eQTMnl
pHSDcjWdKCgrKmjyw+r1BW980/jBY536yhhEVNEdpUkRJrHo/JzrqR2rUbQ13RDX
R2JyqMRtLxHTsDskFEH4VU+l+sxr/VfHqez7LqFfk0mgrrmiUKWTGJ4TQ8keJhrc
yeOrztUhM5JT8534HomiRlovTRqcAc2531Aw37Qa4yj7u8hzszacKKrblc7T0Sjc
qkbju5m6q18hPSRh6to/NkKcV8AU0tNkeVJ16hI3ZQKNCRKrpUDu9zotU72UUMT/
cWDyuwVrA/gBJOWeQtItyoXEJmkbtlIABg6wKsasu6kCq5F6I/i7hyAtPKaLqHwR
RlG2V4bzjK8NpL3aV9RVvWUEApcftH1NBR1Hwppb4f5o8QzYg+gjhavu1GLAj3fK
-----END CERTIFICATE-----
Certificate:
    Data:
        Version: 3 (0x2)
        Serial Number: 1 (0x1)
    Signature Algorithm: sha256WithRSAEncryption
        Issuer: C=CN, O=X CA, OU=www.xiexianbin.cn, CN=X Root CA - R1
        Validity
            Not Before: May  5 16:11:57 2018 GMT
            Not After : Dec 31 23:59:59 2060 GMT
        Subject: C=CN, O=X CA, OU=www.xiexianbin.cn, CN=X Root CA - R1
        Subject Public Key Info:
            Public Key Algorithm: rsaEncryption
                Public-Key: (4096 bit)
                Modulus:
                    00:c5:00:50:0d:f7:67:a7:b8:0c:49:ff:73:06:dd:
                    a6:b4:5b:e0:e5:4f:d0:5e:2d:e6:d8:2f:94:c2:e0:
                    5d:7d:60:6f:e3:63:18:3f:77:0c:a3:bf:2e:8e:9b:
                    eb:ec:97:a0:d1:6c:b6:6e:a6:5d:95:3b:43:42:b9:
                    80:85:a1:bd:66:12:1b:0a:38:2e:15:9d:68:15:57:
                    a2:44:c4:8c:1b:d4:e3:80:98:ff:8e:f4:e6:2c:a9:
                    0f:78:8f:37:45:85:93:e8:9b:c3:72:ee:33:98:ca:
                    68:26:dc:44:8e:6a:62:29:28:df:96:6b:11:70:e7:
                    ba:61:f0:46:df:4c:c6:e8:66:2d:97:12:4a:b6:cc:
                    ca:22:19:cf:79:c3:47:67:8a:6a:7a:71:02:41:8a:
                    c9:3d:6d:e6:26:32:fe:6a:a5:76:13:db:9b:46:67:
                    ea:0c:8c:96:24:e8:a4:ea:11:d4:5f:de:85:dc:fd:
                    31:da:65:70:2f:a5:e1:bc:2f:3e:43:2c:dd:4a:f8:
                    3a:81:d2:e4:8d:bc:f9:e4:62:2e:c0:77:06:94:99:
                    0a:2f:3d:a2:54:98:8f:c3:52:d5:1e:18:8c:54:c6:
                    14:28:66:a9:cc:f9:9c:48:ce:29:64:99:b8:8a:5b:
                    60:3e:e7:ec:83:43:04:cb:e1:b4:03:84:d2:1b:9c:
                    3c:a3:4e:37:34:ea:8c:34:5e:a8:fe:9e:b4:1b:b0:
                    76:3d:08:8c:bb:8a:97:fd:bf:95:f1:13:e6:fb:be:
                    9f:71:23:b4:53:2c:d9:1e:c0:a3:49:04:46:ee:75:
                    1d:fd:6a:46:ce:fd:6c:c0:98:96:05:66:12:fd:09:
                    fd:18:f6:40:c9:6e:78:c3:26:d4:e7:e9:49:4d:a1:
                    62:b5:c4:24:32:58:48:06:cd:ba:cd:ae:ce:5b:02:
                    f5:4f:50:76:59:d8:d5:f3:37:78:40:e0:6b:4b:a5:
                    27:3c:f1:51:6f:c0:3f:5a:62:c2:1f:fb:1e:e6:41:
                    18:f6:bf:b4:71:e2:a3:90:20:ea:fd:7a:a1:7e:85:
                    0d:29:93:e9:f9:33:2d:45:16:1f:7f:21:23:ab:18:
                    42:a3:37:d8:68:f1:88:bd:a9:33:07:17:d9:92:87:
                    37:a6:65:d5:e6:fc:a3:e2:6e:50:e7:b6:0d:21:9b:
                    ea:e9:3f:62:61:7e:08:cf:91:19:5b:c9:87:3b:58:
                    9a:c1:36:17:a3:74:b0:85:06:0f:ee:ff:33:6d:71:
                    01:1c:dc:1e:48:ec:2a:cf:3f:95:95:44:75:d9:82:
                    b8:c0:40:5b:b9:8a:90:62:4f:11:51:67:f0:53:b3:
                    c6:b3:1d:18:e0:b4:e7:e8:9d:28:c8:48:ed:4d:49:
                    ba:fc:6b
                Exponent: 65537 (0x10001)
        X509v3 extensions:
            X509v3 Key Usage: critical
                Certificate Sign, CRL Sign
            X509v3 Basic Constraints: critical
                CA:TRUE
            X509v3 Subject Key Identifier: 
                62:BA:42:B5:DF:EF:26:CF:78:6B:B3:23:73:98:B2:0D:CC:38:F9:71
            X509v3 Authority Key Identifier: 
                keyid:62:BA:42:B5:DF:EF:26:CF:78:6B:B3:23:73:98:B2:0D:CC:38:F9:71

    Signature Algorithm: sha256WithRSAEncryption
         23:8a:fa:a5:78:3f:7e:eb:81:a4:b1:31:08:8d:51:38:c4:dc:
         bf:2b:a4:3b:08:a8:89:08:da:76:af:f2:bb:9e:7e:c6:b4:80:
         e8:86:c6:06:f7:ba:fb:7c:f4:4d:99:d2:61:f7:98:7e:83:2a:
         50:10:f3:9b:7e:09:0a:b9:6c:6c:a9:5e:fe:f5:ae:11:b9:75:
         9c:e3:04:93:98:51:58:b6:6d:18:c5:f9:3c:ae:b6:df:22:78:
         f5:fc:34:e4:a1:65:c3:75:43:9c:db:01:fc:d0:a6:14:7f:8c:
         49:27:42:3b:b9:fd:8e:26:83:37:85:42:30:48:58:6b:a7:59:
         97:ea:81:ac:26:a5:72:25:be:6c:b3:d1:c7:60:76:4f:f1:0f:
         b5:a7:33:ba:0c:fe:4b:3b:f7:ff:25:fb:26:2c:56:a9:c9:d5:
         30:dc:ae:5d:bd:5d:80:ec:0c:d9:86:d6:a3:e1:f2:55:45:be:
         2d:24:d8:5e:39:1f:aa:61:9a:1f:47:d7:c0:4b:f1:ef:5c:17:
         b8:20:63:34:51:bb:4f:50:e7:af:b3:d4:cf:66:6e:3f:52:9d:
         46:9b:64:e4:4a:68:43:69:ec:22:20:d3:76:fe:b3:38:88:6f:
         42:50:12:44:9d:5e:6c:d6:4c:ff:ef:20:db:b0:da:8c:da:a7:
         51:d0:44:52:7f:35:fa:35:6f:25:7b:f4:0b:c0:4c:c2:e2:07:
         75:ac:40:59:ec:d4:43:8d:9f:51:55:41:d8:91:cf:7e:da:05:
         1b:b5:fe:f9:aa:bc:ba:bc:cd:06:f2:8c:1b:7a:a8:7b:02:5d:
         82:0b:d4:c7:54:40:0c:00:b0:28:dc:a0:08:a3:0e:e5:e8:ed:
         0d:54:d5:4d:70:ec:0c:c5:e4:a4:5d:bd:8c:0b:be:9a:41:50:
         1f:cc:19:87:71:e3:c3:d1:5a:7c:61:bd:d1:15:73:06:63:eb:
         20:0d:57:10:72:ac:07:f5:07:ff:49:33:8d:a9:87:5b:e1:7d:
         9d:97:b0:ce:5d:9d:46:ad:a4:e9:28:5a:0d:3c:f0:bc:5e:f4:
         e4:05:a1:db:00:c1:39:ba:9a:eb:52:74:cb:10:ce:af:36:50:
         3b:25:a0:5b:fc:72:b0:65:53:d8:ca:8e:49:e5:3e:c8:a2:fd:
         8f:8c:97:b1:7d:f3:1b:3e:d6:07:38:e7:e2:96:b4:a6:78:71:
         a6:1c:5a:3b:bb:33:f7:f7:7f:67:34:d9:0e:e2:8d:81:cc:4f:
         72:0e:92:37:5c:de:a8:2f:52:c8:05:66:c7:72:8f:83:5d:00:
         62:55:de:17:9b:64:4b:63:6f:f6:ca:66:d3:7c:1e:a6:53:48:
         c9:ca:3a:61:2b:42:2f:f5
-----BEGIN CERTIFICATE-----
MIIFgjCCA2qgAwIBAgIBATANBgkqhkiG9w0BAQsFADBRMQswCQYDVQQGEwJDTjEN
MAsGA1UECgwEWCBDQTEaMBgGA1UECwwRd3d3LnhpZXhpYW5iaW4uY24xFzAVBgNV
BAMMDlggUm9vdCBDQSAtIFIxMCAXDTE4MDUwNTE2MTE1N1oYDzIwNjAxMjMxMjM1
OTU5WjBRMQswCQYDVQQGEwJDTjENMAsGA1UECgwEWCBDQTEaMBgGA1UECwwRd3d3
LnhpZXhpYW5iaW4uY24xFzAVBgNVBAMMDlggUm9vdCBDQSAtIFIxMIICIjANBgkq
hkiG9w0BAQEFAAOCAg8AMIICCgKCAgEAxQBQDfdnp7gMSf9zBt2mtFvg5U/QXi3m
2C+UwuBdfWBv42MYP3cMo78ujpvr7Jeg0Wy2bqZdlTtDQrmAhaG9ZhIbCjguFZ1o
FVeiRMSMG9TjgJj/jvTmLKkPeI83RYWT6JvDcu4zmMpoJtxEjmpiKSjflmsRcOe6
YfBG30zG6GYtlxJKtszKIhnPecNHZ4pqenECQYrJPW3mJjL+aqV2E9ubRmfqDIyW
JOik6hHUX96F3P0x2mVwL6XhvC8+QyzdSvg6gdLkjbz55GIuwHcGlJkKLz2iVJiP
w1LVHhiMVMYUKGapzPmcSM4pZJm4iltgPufsg0MEy+G0A4TSG5w8o043NOqMNF6o
/p60G7B2PQiMu4qX/b+V8RPm+76fcSO0UyzZHsCjSQRG7nUd/WpGzv1swJiWBWYS
/Qn9GPZAyW54wybU5+lJTaFitcQkMlhIBs26za7OWwL1T1B2WdjV8zd4QOBrS6Un
PPFRb8A/WmLCH/se5kEY9r+0ceKjkCDq/XqhfoUNKZPp+TMtRRYffyEjqxhCozfY
aPGIvakzBxfZkoc3pmXV5vyj4m5Q57YNIZvq6T9iYX4Iz5EZW8mHO1iawTYXo3Sw
hQYP7v8zbXEBHNweSOwqzz+VlUR12YK4wEBbuYqQYk8RUWfwU7PGsx0Y4LTn6J0o
yEjtTUm6/GsCAwEAAaNjMGEwDgYDVR0PAQH/BAQDAgEGMA8GA1UdEwEB/wQFMAMB
Af8wHQYDVR0OBBYEFGK6QrXf7ybPeGuzI3OYsg3MOPlxMB8GA1UdIwQYMBaAFGK6
QrXf7ybPeGuzI3OYsg3MOPlxMA0GCSqGSIb3DQEBCwUAA4ICAQAjivqleD9+64Gk
sTEIjVE4xNy/K6Q7CKiJCNp2r/K7nn7GtIDohsYG97r7fPRNmdJh95h+gypQEPOb
fgkKuWxsqV7+9a4RuXWc4wSTmFFYtm0Yxfk8rrbfInj1/DTkoWXDdUOc2wH80KYU
f4xJJ0I7uf2OJoM3hUIwSFhrp1mX6oGsJqVyJb5ss9HHYHZP8Q+1pzO6DP5LO/f/
JfsmLFapydUw3K5dvV2A7AzZhtaj4fJVRb4tJNheOR+qYZofR9fAS/HvXBe4IGM0
UbtPUOevs9TPZm4/Up1Gm2TkSmhDaewiINN2/rM4iG9CUBJEnV5s1kz/7yDbsNqM
2qdR0ERSfzX6NW8le/QLwEzC4gd1rEBZ7NRDjZ9RVUHYkc9+2gUbtf75qry6vM0G
8owbeqh7Al2CC9THVEAMALAo3KAIow7l6O0NVNVNcOwMxeSkXb2MC76aQVAfzBmH
cePD0Vp8Yb3RFXMGY+sgDVcQcqwH9Qf/STONqYdb4X2dl7DOXZ1GraTpKFoNPPC8
XvTkBaHbAME5uprrUnTLEM6vNlA7JaBb/HKwZVPYyo5J5T7Iov2PjJexffMbPtYH
OOfilrSmeHGmHFo7uzP3939nNNkO4o2BzE9yDpI3XN6oL1LIBWbHco+DXQBiVd4X
m2RLY2/2ymbTfB6mU0jJyjphK0Iv9Q==
-----END CERTIFICATE-----
